; Function Attrs: nounwind uwtable
define range(i32 0, 2) i32 @ossl_pkcs7_ctx_propagate(ptr noundef readonly captures(none) %0, ptr noundef initializes((40, 48)) %1) local_unnamed_addr #0 {
  %3 = getelementptr inbounds nuw i8, ptr %0, i64 40
  %4 = load ptr, ptr %3, align 8, !tbaa !91
  %5 = getelementptr inbounds nuw i8, ptr %1, i64 40
  store ptr %4, ptr %5, align 8, !tbaa !91
  %6 = getelementptr inbounds nuw i8, ptr %0, i64 48
  %7 = load ptr, ptr %6, align 8, !tbaa !92
  %8 = getelementptr inbounds nuw i8, ptr %1, i64 48
  %9 = load ptr, ptr %8, align 8, !tbaa !92
  %.not.i = icmp eq ptr %9, null
  br i1 %.not.i, label %11, label %10

10:                                               ; preds = %2
  tail call void @CRYPTO_free(ptr noundef nonnull %9, ptr noundef nonnull @.str, i32 noundef 494) #7
  store ptr null, ptr %8, align 8, !tbaa !92
  br label %11

11:                                               ; preds = %10, %2
  %.not9.i = icmp eq ptr %7, null
  br i1 %.not9.i, label %ossl_pkcs7_set1_propq.exit, label %12

12:                                               ; preds = %11
  %13 = tail call noalias ptr @CRYPTO_strdup(ptr noundef nonnull %7, ptr noundef nonnull @.str, i32 noundef 498) #7
  store ptr %13, ptr %8, align 8, !tbaa !92
  %14 = icmp eq ptr %13, null
  br i1 %14, label %ossl_pkcs7_set1_propq.exit.thread, label %ossl_pkcs7_set1_propq.exit

ossl_pkcs7_set1_propq.exit:                       ; preds = %12, %11
  tail call void @ossl_pkcs7_resolve_libctx(ptr noundef nonnull %1)
  br label %ossl_pkcs7_set1_propq.exit.thread

ossl_pkcs7_set1_propq.exit.thread:                ; preds = %12, %ossl_pkcs7_set1_propq.exit
  %.0 = phi i32 [ 1, %ossl_pkcs7_set1_propq.exit ], [ 0, %12 ]
  ret i32 %.0
}